; Function Attrs: nounwind uwtable
define hidden range(i32 0, 2) i32 @DGifGetPixel(ptr noundef %0, i8 noundef zeroext %1) local_unnamed_addr #0 {
  %3 = alloca i8, align 1
  %4 = alloca i8, align 1
  %5 = getelementptr inbounds i8, ptr %0, i64 112
  %6 = load ptr, ptr %5, align 8
  %7 = load i32, ptr %6, align 8
  %8 = and i32 %7, 8
  %.not = icmp eq i32 %8, 0
  br i1 %.not, label %9, label %11

9:                                                ; preds = %2
  %10 = getelementptr inbounds i8, ptr %0, i64 96
  store i32 111, ptr %10, align 8
  br label %57

11:                                               ; preds = %2
  %12 = getelementptr inbounds i8, ptr %6, i64 56
  %13 = load i64, ptr %12, align 8
  %14 = add i64 %13, -1
  store i64 %14, ptr %12, align 8
  %15 = icmp ugt i64 %14, 4294901760
  br i1 %15, label %16, label %18

16:                                               ; preds = %11
  %17 = getelementptr inbounds i8, ptr %0, i64 96
  store i32 108, ptr %17, align 8
  br label %57

18:                                               ; preds = %11
  %19 = call fastcc i32 @DGifDecompressLine(ptr noundef nonnull %0, ptr noundef nonnull %4, i32 noundef 1)
  %.not8 = icmp eq i32 %19, 0
  br i1 %.not8, label %57, label %20

20:                                               ; preds = %18
  %21 = load i64, ptr %12, align 8
  %22 = icmp eq i64 %21, 0
  br i1 %22, label %.preheader, label %57

.preheader:                                       ; preds = %20, %56
  call void @llvm.lifetime.start.p0(i64 1, ptr nonnull %3)
  %23 = load ptr, ptr %5, align 8
  %24 = getelementptr inbounds i8, ptr %23, i64 72
  %25 = load ptr, ptr %24, align 8
  %.not.i.i = icmp eq ptr %25, null
  br i1 %.not.i.i, label %28, label %26

26:                                               ; preds = %.preheader
  %27 = call i32 %25(ptr noundef nonnull %0, ptr noundef nonnull %3, i32 noundef 1) #14
  br label %InternalRead.exit.i

28:                                               ; preds = %.preheader
  %29 = getelementptr inbounds i8, ptr %23, i64 64
  %30 = load ptr, ptr %29, align 8
  %31 = call i64 @fread(ptr noundef nonnull %3, i64 noundef 1, i64 noundef 1, ptr noundef %30)
  %32 = trunc i64 %31 to i32
  br label %InternalRead.exit.i

InternalRead.exit.i:                              ; preds = %28, %26
  %33 = phi i32 [ %27, %26 ], [ %32, %28 ]
  %.not.i = icmp eq i32 %33, 1
  br i1 %.not.i, label %34, label %DGifGetCodeNext.exit.thread

34:                                               ; preds = %InternalRead.exit.i
  %35 = load i8, ptr %3, align 1
  %.not12.i = icmp eq i8 %35, 0
  %36 = getelementptr inbounds i8, ptr %23, i64 88
  br i1 %.not12.i, label %.thread, label %37

37:                                               ; preds = %34
  store i8 %35, ptr %36, align 1
  %38 = getelementptr inbounds i8, ptr %23, i64 89
  %39 = load ptr, ptr %5, align 8
  %40 = getelementptr inbounds i8, ptr %39, i64 72
  %41 = load ptr, ptr %40, align 8
  %.not.i14.i = icmp eq ptr %41, null
  br i1 %.not.i14.i, label %45, label %42

42:                                               ; preds = %37
  %43 = zext i8 %35 to i32
  %44 = call i32 %41(ptr noundef nonnull %0, ptr noundef nonnull %38, i32 noundef %43) #14
  br label %InternalRead.exit15.i

45:                                               ; preds = %37
  %46 = zext i8 %35 to i64
  %47 = getelementptr inbounds i8, ptr %39, i64 64
  %48 = load ptr, ptr %47, align 8
  %49 = call i64 @fread(ptr noundef nonnull %38, i64 noundef 1, i64 noundef %46, ptr noundef %48)
  %50 = trunc i64 %49 to i32
  br label %InternalRead.exit15.i

InternalRead.exit15.i:                            ; preds = %45, %42
  %51 = phi i32 [ %44, %42 ], [ %50, %45 ]
  %52 = load i8, ptr %3, align 1
  %53 = zext i8 %52 to i32
  %.not13.i = icmp eq i32 %51, %53
  br i1 %.not13.i, label %56, label %DGifGetCodeNext.exit.thread

.thread:                                          ; preds = %34
  store i8 0, ptr %36, align 8
  %54 = getelementptr inbounds i8, ptr %23, i64 56
  store i64 0, ptr %54, align 8
  call void @llvm.lifetime.end.p0(i64 1, ptr nonnull %3)
  br label %57

DGifGetCodeNext.exit.thread:                      ; preds = %InternalRead.exit15.i, %InternalRead.exit.i
  %55 = getelementptr inbounds i8, ptr %0, i64 96
  store i32 102, ptr %55, align 8
  call void @llvm.lifetime.end.p0(i64 1, ptr nonnull %3)
  br label %57

56:                                               ; preds = %InternalRead.exit15.i
  call void @llvm.lifetime.end.p0(i64 1, ptr nonnull %3)
  br label %.preheader, !llvm.loop !17

57:                                               ; preds = %.thread, %DGifGetCodeNext.exit.thread, %18, %20, %16, %9
  %.0 = phi i32 [ 0, %16 ], [ 0, %9 ], [ 1, %20 ], [ 0, %18 ], [ 0, %DGifGetCodeNext.exit.thread ], [ 1, %.thread ]
  ret i32 %.0
}